target datalayout = "e-m:e-p270:32:32-p271:32:32-p272:64:64-i64:64-i128:128-f80:128-n8:16:32:64-S128"
target triple = "x86_64-pc-linux-gnu"

%struct.JsonManifestParseState = type { ptr, i32, i32, ptr, ptr, ptr, ptr, i32, ptr, i32, ptr, ptr, ptr, i8, ptr, ptr, ptr }
%struct.JsonManifestParseContext = type { ptr, ptr, ptr, ptr, ptr, ptr }

@.str.23 = private unnamed_addr constant [35 x i8] c"PostgreSQL-Backup-Manifest-Version\00", align 1
@.str.24 = private unnamed_addr constant [27 x i8] c"expected version indicator\00", align 1
@.str.25 = private unnamed_addr constant [18 x i8] c"System-Identifier\00", align 1
@.str.26 = private unnamed_addr constant [6 x i8] c"Files\00", align 1
@.str.27 = private unnamed_addr constant [11 x i8] c"WAL-Ranges\00", align 1
@.str.28 = private unnamed_addr constant [18 x i8] c"Manifest-Checksum\00", align 1
@.str.29 = private unnamed_addr constant [29 x i8] c"unrecognized top-level field\00", align 1
@.str.30 = private unnamed_addr constant [5 x i8] c"Path\00", align 1
@.str.31 = private unnamed_addr constant [13 x i8] c"Encoded-Path\00", align 1
@.str.32 = private unnamed_addr constant [5 x i8] c"Size\00", align 1
@.str.33 = private unnamed_addr constant [14 x i8] c"Last-Modified\00", align 1
@.str.34 = private unnamed_addr constant [19 x i8] c"Checksum-Algorithm\00", align 1
@.str.35 = private unnamed_addr constant [9 x i8] c"Checksum\00", align 1
@.str.36 = private unnamed_addr constant [22 x i8] c"unexpected file field\00", align 1
@.str.37 = private unnamed_addr constant [9 x i8] c"Timeline\00", align 1
@.str.38 = private unnamed_addr constant [10 x i8] c"Start-LSN\00", align 1
@.str.39 = private unnamed_addr constant [8 x i8] c"End-LSN\00", align 1
@.str.40 = private unnamed_addr constant [27 x i8] c"unexpected WAL range field\00", align 1
@.str.41 = private unnamed_addr constant [24 x i8] c"unexpected object field\00", align 1
@.str.52 = private unnamed_addr constant [36 x i8] c"could not parse backup manifest: %s\00", align 1

; Function Attrs: nounwind uwtable
define internal void @json_manifest_parse_failure(ptr noundef %0, ptr noundef %1) #0 {
  %3 = alloca ptr, align 8
  %4 = alloca ptr, align 8
  store ptr %0, ptr %3, align 8
  store ptr %1, ptr %4, align 8
  %5 = load ptr, ptr %3, align 8
  %6 = getelementptr inbounds nuw %struct.JsonManifestParseContext, ptr %5, i32 0, i32 5
  %7 = load ptr, ptr %6, align 8
  %8 = load ptr, ptr %3, align 8
  %9 = load ptr, ptr %4, align 8
  call void (ptr, ptr, ...) %7(ptr noundef %8, ptr noundef @.str.52, ptr noundef %9) #6
  unreachable
}

; Function Attrs: nounwind uwtable
define internal i32 @json_manifest_object_field_start(ptr noundef %0, ptr noundef %1, i1 noundef zeroext %2) #0 {
  %4 = alloca ptr, align 8
  %5 = alloca ptr, align 8
  %6 = alloca i8, align 1
  %7 = alloca ptr, align 8
  store ptr %0, ptr %4, align 8
  store ptr %1, ptr %5, align 8
  %8 = zext i1 %2 to i8
  store i8 %8, ptr %6, align 1
  call void @llvm.lifetime.start.p0(i64 8, ptr %7) #5
  %9 = load ptr, ptr %4, align 8
  store ptr %9, ptr %7, align 8
  %10 = load ptr, ptr %7, align 8
  %11 = getelementptr inbounds nuw %struct.JsonManifestParseState, ptr %10, i32 0, i32 1
  %12 = load i32, ptr %11, align 8
  switch i32 %12, label %147 [
    i32 2, label %13
    i32 7, label %63
    i32 11, label %117
  ]

13:                                               ; preds = %3
  %14 = load ptr, ptr %7, align 8
  %15 = getelementptr inbounds nuw %struct.JsonManifestParseState, ptr %14, i32 0, i32 13
  %16 = load i8, ptr %15, align 8, !range !4, !noundef !5
  %17 = trunc i8 %16 to i1
  br i1 %17, label %31, label %18

18:                                               ; preds = %13
  %19 = load ptr, ptr %5, align 8
  %20 = call i32 @strcmp(ptr noundef %19, ptr noundef @.str.23) #7
  %21 = icmp ne i32 %20, 0
  br i1 %21, label %22, label %26

22:                                               ; preds = %18
  %23 = load ptr, ptr %7, align 8
  %24 = getelementptr inbounds nuw %struct.JsonManifestParseState, ptr %23, i32 0, i32 0
  %25 = load ptr, ptr %24, align 8
  call void @json_manifest_parse_failure(ptr noundef %25, ptr noundef @.str.24)
  br label %26

26:                                               ; preds = %22, %18
  %27 = load ptr, ptr %7, align 8
  %28 = getelementptr inbounds nuw %struct.JsonManifestParseState, ptr %27, i32 0, i32 1
  store i32 3, ptr %28, align 8
  %29 = load ptr, ptr %7, align 8
  %30 = getelementptr inbounds nuw %struct.JsonManifestParseState, ptr %29, i32 0, i32 13
  store i8 1, ptr %30, align 8
  br label %151

31:                                               ; preds = %13
  %32 = load ptr, ptr %5, align 8
  %33 = call i32 @strcmp(ptr noundef %32, ptr noundef @.str.25) #7
  %34 = icmp eq i32 %33, 0
  br i1 %34, label %35, label %38

35:                                               ; preds = %31
  %36 = load ptr, ptr %7, align 8
  %37 = getelementptr inbounds nuw %struct.JsonManifestParseState, ptr %36, i32 0, i32 1
  store i32 4, ptr %37, align 8
  br label %151

38:                                               ; preds = %31
  %39 = load ptr, ptr %5, align 8
  %40 = call i32 @strcmp(ptr noundef %39, ptr noundef @.str.26) #7
  %41 = icmp eq i32 %40, 0
  br i1 %41, label %42, label %45

42:                                               ; preds = %38
  %43 = load ptr, ptr %7, align 8
  %44 = getelementptr inbounds nuw %struct.JsonManifestParseState, ptr %43, i32 0, i32 1
  store i32 5, ptr %44, align 8
  br label %151

45:                                               ; preds = %38
  %46 = load ptr, ptr %5, align 8
  %47 = call i32 @strcmp(ptr noundef %46, ptr noundef @.str.27) #7
  %48 = icmp eq i32 %47, 0
  br i1 %48, label %49, label %52

49:                                               ; preds = %45
  %50 = load ptr, ptr %7, align 8
  %51 = getelementptr inbounds nuw %struct.JsonManifestParseState, ptr %50, i32 0, i32 1
  store i32 9, ptr %51, align 8
  br label %151

52:                                               ; preds = %45
  %53 = load ptr, ptr %5, align 8
  %54 = call i32 @strcmp(ptr noundef %53, ptr noundef @.str.28) #7
  %55 = icmp eq i32 %54, 0
  br i1 %55, label %56, label %59

56:                                               ; preds = %52
  %57 = load ptr, ptr %7, align 8
  %58 = getelementptr inbounds nuw %struct.JsonManifestParseState, ptr %57, i32 0, i32 1
  store i32 13, ptr %58, align 8
  br label %151

59:                                               ; preds = %52
  %60 = load ptr, ptr %7, align 8
  %61 = getelementptr inbounds nuw %struct.JsonManifestParseState, ptr %60, i32 0, i32 0
  %62 = load ptr, ptr %61, align 8
  call void @json_manifest_parse_failure(ptr noundef %62, ptr noundef @.str.29)
  br label %151

63:                                               ; preds = %3
  %64 = load ptr, ptr %5, align 8
  %65 = call i32 @strcmp(ptr noundef %64, ptr noundef @.str.30) #7
  %66 = icmp eq i32 %65, 0
  br i1 %66, label %67, label %70

67:                                               ; preds = %63
  %68 = load ptr, ptr %7, align 8
  %69 = getelementptr inbounds nuw %struct.JsonManifestParseState, ptr %68, i32 0, i32 2
  store i32 0, ptr %69, align 4
  br label %114

70:                                               ; preds = %63
  %71 = load ptr, ptr %5, align 8
  %72 = call i32 @strcmp(ptr noundef %71, ptr noundef @.str.31) #7
  %73 = icmp eq i32 %72, 0
  br i1 %73, label %74, label %77

74:                                               ; preds = %70
  %75 = load ptr, ptr %7, align 8
  %76 = getelementptr inbounds nuw %struct.JsonManifestParseState, ptr %75, i32 0, i32 2
  store i32 1, ptr %76, align 4
  br label %113

77:                                               ; preds = %70
  %78 = load ptr, ptr %5, align 8
  %79 = call i32 @strcmp(ptr noundef %78, ptr noundef @.str.32) #7
  %80 = icmp eq i32 %79, 0
  br i1 %80, label %81, label %84

81:                                               ; preds = %77
  %82 = load ptr, ptr %7, align 8
  %83 = getelementptr inbounds nuw %struct.JsonManifestParseState, ptr %82, i32 0, i32 2
  store i32 2, ptr %83, align 4
  br label %112

84:                                               ; preds = %77
  %85 = load ptr, ptr %5, align 8
  %86 = call i32 @strcmp(ptr noundef %85, ptr noundef @.str.33) #7
  %87 = icmp eq i32 %86, 0
  br i1 %87, label %88, label %91

88:                                               ; preds = %84
  %89 = load ptr, ptr %7, align 8
  %90 = getelementptr inbounds nuw %struct.JsonManifestParseState, ptr %89, i32 0, i32 2
  store i32 3, ptr %90, align 4
  br label %111

91:                                               ; preds = %84
  %92 = load ptr, ptr %5, align 8
  %93 = call i32 @strcmp(ptr noundef %92, ptr noundef @.str.34) #7
  %94 = icmp eq i32 %93, 0
  br i1 %94, label %95, label %98

95:                                               ; preds = %91
  %96 = load ptr, ptr %7, align 8
  %97 = getelementptr inbounds nuw %struct.JsonManifestParseState, ptr %96, i32 0, i32 2
  store i32 4, ptr %97, align 4
  br label %110

98:                                               ; preds = %91
  %99 = load ptr, ptr %5, align 8
  %100 = call i32 @strcmp(ptr noundef %99, ptr noundef @.str.35) #7
  %101 = icmp eq i32 %100, 0
  br i1 %101, label %102, label %105

102:                                              ; preds = %98
  %103 = load ptr, ptr %7, align 8
  %104 = getelementptr inbounds nuw %struct.JsonManifestParseState, ptr %103, i32 0, i32 2
  store i32 5, ptr %104, align 4
  br label %109

105:                                              ; preds = %98
  %106 = load ptr, ptr %7, align 8
  %107 = getelementptr inbounds nuw %struct.JsonManifestParseState, ptr %106, i32 0, i32 0
  %108 = load ptr, ptr %107, align 8
  call void @json_manifest_parse_failure(ptr noundef %108, ptr noundef @.str.36)
  br label %109

109:                                              ; preds = %105, %102
  br label %110

110:                                              ; preds = %109, %95
  br label %111

111:                                              ; preds = %110, %88
  br label %112

112:                                              ; preds = %111, %81
  br label %113

113:                                              ; preds = %112, %74
  br label %114

114:                                              ; preds = %113, %67
  %115 = load ptr, ptr %7, align 8
  %116 = getelementptr inbounds nuw %struct.JsonManifestParseState, ptr %115, i32 0, i32 1
  store i32 8, ptr %116, align 8
  br label %151

117:                                              ; preds = %3
  %118 = load ptr, ptr %5, align 8
  %119 = call i32 @strcmp(ptr noundef %118, ptr noundef @.str.37) #7
  %120 = icmp eq i32 %119, 0
  br i1 %120, label %121, label %124

121:                                              ; preds = %117
  %122 = load ptr, ptr %7, align 8
  %123 = getelementptr inbounds nuw %struct.JsonManifestParseState, ptr %122, i32 0, i32 9
  store i32 0, ptr %123, align 8
  br label %144

124:                                              ; preds = %117
  %125 = load ptr, ptr %5, align 8
  %126 = call i32 @strcmp(ptr noundef %125, ptr noundef @.str.38) #7
  %127 = icmp eq i32 %126, 0
  br i1 %127, label %128, label %131

128:                                              ; preds = %124
  %129 = load ptr, ptr %7, align 8
  %130 = getelementptr inbounds nuw %struct.JsonManifestParseState, ptr %129, i32 0, i32 9
  store i32 1, ptr %130, align 8
  br label %143

131:                                              ; preds = %124
  %132 = load ptr, ptr %5, align 8
  %133 = call i32 @strcmp(ptr noundef %132, ptr noundef @.str.39) #7
  %134 = icmp eq i32 %133, 0
  br i1 %134, label %135, label %138

135:                                              ; preds = %131
  %136 = load ptr, ptr %7, align 8
  %137 = getelementptr inbounds nuw %struct.JsonManifestParseState, ptr %136, i32 0, i32 9
  store i32 2, ptr %137, align 8
  br label %142

138:                                              ; preds = %131
  %139 = load ptr, ptr %7, align 8
  %140 = getelementptr inbounds nuw %struct.JsonManifestParseState, ptr %139, i32 0, i32 0
  %141 = load ptr, ptr %140, align 8
  call void @json_manifest_parse_failure(ptr noundef %141, ptr noundef @.str.40)
  br label %142

142:                                              ; preds = %138, %135
  br label %143

143:                                              ; preds = %142, %128
  br label %144

144:                                              ; preds = %143, %121
  %145 = load ptr, ptr %7, align 8
  %146 = getelementptr inbounds nuw %struct.JsonManifestParseState, ptr %145, i32 0, i32 1
  store i32 12, ptr %146, align 8
  br label %151

147:                                              ; preds = %3
  %148 = load ptr, ptr %7, align 8
  %149 = getelementptr inbounds nuw %struct.JsonManifestParseState, ptr %148, i32 0, i32 0
  %150 = load ptr, ptr %149, align 8
  call void @json_manifest_parse_failure(ptr noundef %150, ptr noundef @.str.41)
  br label %151

151:                                              ; preds = %147, %144, %114, %59, %56, %49, %42, %35, %26
  %152 = load ptr, ptr %5, align 8
  call void @pfree(ptr noundef %152)
  call void @llvm.lifetime.end.p0(i64 8, ptr %7) #5
  ret i32 0
}