; Function Attrs: nounwind uwtable
define internal noundef i32 @json_manifest_object_field_start(ptr noundef captures(none) %0, ptr noundef %1, i1 zeroext %2) #0 {
  %4 = getelementptr inbounds nuw i8, ptr %0, i64 8
  %5 = load i32, ptr %4, align 8
  switch i32 %5, label %76 [
    i32 2, label %6
    i32 7, label %37
    i32 11, label %61
  ]

6:                                                ; preds = %3
  %7 = getelementptr inbounds nuw i8, ptr %0, i64 96
  %8 = load i8, ptr %7, align 8, !range !6, !noundef !7
  %9 = trunc nuw i8 %8 to i1
  br i1 %9, label %17, label %10

10:                                               ; preds = %6
  %11 = tail call i32 @strcmp(ptr noundef nonnull dereferenceable(1) %1, ptr noundef nonnull dereferenceable(35) @.str.23) #10
  %.not = icmp eq i32 %11, 0
  br i1 %.not, label %16, label %12

12:                                               ; preds = %10
  %13 = load ptr, ptr %0, align 8
  %14 = getelementptr inbounds nuw i8, ptr %13, i64 40
  %15 = load ptr, ptr %14, align 8
  tail call void (ptr, ptr, ...) %15(ptr noundef %13, ptr noundef nonnull @.str.52, ptr noundef nonnull @.str.24) #9
  unreachable

16:                                               ; preds = %10
  store i32 3, ptr %4, align 8
  store i8 1, ptr %7, align 8
  br label %80

17:                                               ; preds = %6
  %18 = tail call i32 @strcmp(ptr noundef nonnull dereferenceable(1) %1, ptr noundef nonnull dereferenceable(18) @.str.25) #10
  %19 = icmp eq i32 %18, 0
  br i1 %19, label %20, label %21

20:                                               ; preds = %17
  store i32 4, ptr %4, align 8
  br label %80

21:                                               ; preds = %17
  %22 = tail call i32 @strcmp(ptr noundef nonnull dereferenceable(1) %1, ptr noundef nonnull dereferenceable(6) @.str.26) #10
  %23 = icmp eq i32 %22, 0
  br i1 %23, label %24, label %25

24:                                               ; preds = %21
  store i32 5, ptr %4, align 8
  br label %80

25:                                               ; preds = %21
  %26 = tail call i32 @strcmp(ptr noundef nonnull dereferenceable(1) %1, ptr noundef nonnull dereferenceable(11) @.str.27) #10
  %27 = icmp eq i32 %26, 0
  br i1 %27, label %28, label %29

28:                                               ; preds = %25
  store i32 9, ptr %4, align 8
  br label %80

29:                                               ; preds = %25
  %30 = tail call i32 @strcmp(ptr noundef nonnull dereferenceable(1) %1, ptr noundef nonnull dereferenceable(18) @.str.28) #10
  %31 = icmp eq i32 %30, 0
  br i1 %31, label %32, label %33

32:                                               ; preds = %29
  store i32 13, ptr %4, align 8
  br label %80

33:                                               ; preds = %29
  %34 = load ptr, ptr %0, align 8
  %35 = getelementptr inbounds nuw i8, ptr %34, i64 40
  %36 = load ptr, ptr %35, align 8
  tail call void (ptr, ptr, ...) %36(ptr noundef %34, ptr noundef nonnull @.str.52, ptr noundef nonnull @.str.29) #9
  unreachable

37:                                               ; preds = %3
  %38 = tail call i32 @strcmp(ptr noundef nonnull dereferenceable(1) %1, ptr noundef nonnull dereferenceable(5) @.str.30) #10
  %39 = icmp eq i32 %38, 0
  br i1 %39, label %59, label %40

40:                                               ; preds = %37
  %41 = tail call i32 @strcmp(ptr noundef nonnull dereferenceable(1) %1, ptr noundef nonnull dereferenceable(13) @.str.31) #10
  %42 = icmp eq i32 %41, 0
  br i1 %42, label %59, label %43

43:                                               ; preds = %40
  %44 = tail call i32 @strcmp(ptr noundef nonnull dereferenceable(1) %1, ptr noundef nonnull dereferenceable(5) @.str.32) #10
  %45 = icmp eq i32 %44, 0
  br i1 %45, label %59, label %46

46:                                               ; preds = %43
  %47 = tail call i32 @strcmp(ptr noundef nonnull dereferenceable(1) %1, ptr noundef nonnull dereferenceable(14) @.str.33) #10
  %48 = icmp eq i32 %47, 0
  br i1 %48, label %59, label %49

49:                                               ; preds = %46
  %50 = tail call i32 @strcmp(ptr noundef nonnull dereferenceable(1) %1, ptr noundef nonnull dereferenceable(19) @.str.34) #10
  %51 = icmp eq i32 %50, 0
  br i1 %51, label %59, label %52

52:                                               ; preds = %49
  %53 = tail call i32 @strcmp(ptr noundef nonnull dereferenceable(1) %1, ptr noundef nonnull dereferenceable(9) @.str.35) #10
  %54 = icmp eq i32 %53, 0
  br i1 %54, label %59, label %55

55:                                               ; preds = %52
  %56 = load ptr, ptr %0, align 8
  %57 = getelementptr inbounds nuw i8, ptr %56, i64 40
  %58 = load ptr, ptr %57, align 8
  tail call void (ptr, ptr, ...) %58(ptr noundef %56, ptr noundef nonnull @.str.52, ptr noundef nonnull @.str.36) #9
  unreachable

59:                                               ; preds = %52, %49, %46, %43, %40, %37
  %.sink = phi i32 [ 0, %37 ], [ 1, %40 ], [ 2, %43 ], [ 3, %46 ], [ 4, %49 ], [ 5, %52 ]
  %60 = getelementptr inbounds nuw i8, ptr %0, i64 12
  store i32 %.sink, ptr %60, align 4
  store i32 8, ptr %4, align 8
  br label %80

61:                                               ; preds = %3
  %62 = tail call i32 @strcmp(ptr noundef nonnull dereferenceable(1) %1, ptr noundef nonnull dereferenceable(9) @.str.37) #10
  %63 = icmp eq i32 %62, 0
  br i1 %63, label %74, label %64

64:                                               ; preds = %61
  %65 = tail call i32 @strcmp(ptr noundef nonnull dereferenceable(1) %1, ptr noundef nonnull dereferenceable(10) @.str.38) #10
  %66 = icmp eq i32 %65, 0
  br i1 %66, label %74, label %67

67:                                               ; preds = %64
  %68 = tail call i32 @strcmp(ptr noundef nonnull dereferenceable(1) %1, ptr noundef nonnull dereferenceable(8) @.str.39) #10
  %69 = icmp eq i32 %68, 0
  br i1 %69, label %74, label %70

70:                                               ; preds = %67
  %71 = load ptr, ptr %0, align 8
  %72 = getelementptr inbounds nuw i8, ptr %71, i64 40
  %73 = load ptr, ptr %72, align 8
  tail call void (ptr, ptr, ...) %73(ptr noundef %71, ptr noundef nonnull @.str.52, ptr noundef nonnull @.str.40) #9
  unreachable

74:                                               ; preds = %67, %64, %61
  %.sink45 = phi i32 [ 0, %61 ], [ 1, %64 ], [ 2, %67 ]
  %75 = getelementptr inbounds nuw i8, ptr %0, i64 64
  store i32 %.sink45, ptr %75, align 8
  store i32 12, ptr %4, align 8
  br label %80

76:                                               ; preds = %3
  %77 = load ptr, ptr %0, align 8
  %78 = getelementptr inbounds nuw i8, ptr %77, i64 40
  %79 = load ptr, ptr %78, align 8
  tail call void (ptr, ptr, ...) %79(ptr noundef %77, ptr noundef nonnull @.str.52, ptr noundef nonnull @.str.41) #9
  unreachable

80:                                               ; preds = %74, %59, %32, %28, %24, %20, %16
  tail call void @pfree(ptr noundef nonnull %1) #8
  ret i32 0
}